; Function Attrs: nofree nounwind uwtable
define dso_local noundef i32 @lstat_cache_aware_rmdir(ptr noundef readonly captures(none) %0) local_unnamed_addr #4 {
  %2 = tail call i32 @rmdir(ptr noundef %0) #11
  %.not = icmp eq i32 %2, 0
  br i1 %.not, label %3, label %6

3:                                                ; preds = %1
  store i64 0, ptr getelementptr inbounds nuw (i8, ptr @default_cache, i64 8), align 8, !tbaa !17
  %4 = load ptr, ptr getelementptr inbounds nuw (i8, ptr @default_cache, i64 16), align 8, !tbaa !14
  %.not9.i.i.i = icmp eq ptr %4, @strbuf_slopbuf
  br i1 %.not9.i.i.i, label %invalidate_lstat_cache.exit, label %5

5:                                                ; preds = %3
  store i8 0, ptr %4, align 1, !tbaa !18
  br label %invalidate_lstat_cache.exit

invalidate_lstat_cache.exit:                      ; preds = %3, %5
  store i32 0, ptr getelementptr inbounds nuw (i8, ptr @default_cache, i64 24), align 8, !tbaa !23
  br label %6

6:                                                ; preds = %invalidate_lstat_cache.exit, %1
  ret i32 %2
}